; Function Attrs: mustprogress nounwind uwtable
define hidden void @_ZN14ZPageAllocator13increase_usedEm(ptr noundef nonnull align 8 dereferenceable(609) %0, i64 noundef %1) local_unnamed_addr #1 align 2 {
  %3 = getelementptr inbounds i8, ptr %0, i64 440
  %4 = tail call noundef i64 asm sideeffect "lock xaddq $0,($2)", "=r,0,r,~{cc},~{memory},~{dirflag},~{fpsr},~{flags}"(i64 %1, ptr nonnull %3) #13, !srcloc !8
  %5 = add i64 %4, %1
  %.0.ptr13 = getelementptr inbounds i8, ptr %0, i64 464
  br label %6

6:                                                ; preds = %2, %10
  %.0.ptr15 = phi ptr [ %.0.ptr13, %2 ], [ %.0.ptr, %10 ]
  %.0.idx14 = phi i64 [ 464, %2 ], [ %.0.add, %10 ]
  %7 = load i64, ptr %.0.ptr15, align 8
  %8 = icmp ugt i64 %5, %7
  br i1 %8, label %9, label %10

9:                                                ; preds = %6
  store i64 %5, ptr %.0.ptr15, align 8
  br label %10

10:                                               ; preds = %6, %9
  %.0.add = add nuw nsw i64 %.0.idx14, 16
  %.0.ptr = getelementptr inbounds i8, ptr %0, i64 %.0.add
  %.not = icmp eq i64 %.0.add, 496
  br i1 %.not, label %11, label %6

11:                                               ; preds = %10
  ret void
}